; Function Attrs: nounwind uwtable
define void @Saig_ManCbaUnrollCollect_rec(ptr noundef %0, ptr noundef captures(none) %1, ptr noundef %2, ptr noundef %3) local_unnamed_addr #0 {
  %5 = getelementptr i8, ptr %0, i64 312
  %.val33 = load i32, ptr %5, align 8, !tbaa !72
  %6 = getelementptr i8, ptr %1, i64 32
  %.val34 = load i32, ptr %6, align 8, !tbaa !73
  %.not = icmp eq i32 %.val34, %.val33
  br i1 %.not, label %101, label %7

7:                                                ; preds = %4
  store i32 %.val33, ptr %6, align 8, !tbaa !73
  %8 = getelementptr i8, ptr %1, i64 24
  %.val38 = load i64, ptr %8, align 8
  %9 = and i64 %.val38, 7
  %.not50 = icmp eq i64 %9, 3
  br i1 %.not50, label %.sink.split, label %10

10:                                               ; preds = %7
  %11 = trunc i64 %.val38 to i32
  %12 = and i32 %11, 7
  %13 = add nsw i32 %12, -7
  %narrow.i = icmp ult i32 %13, -2
  br i1 %narrow.i, label %23, label %14

14:                                               ; preds = %10
  %15 = getelementptr i8, ptr %1, i64 8
  %.val30 = load ptr, ptr %15, align 8, !tbaa !44
  %16 = ptrtoint ptr %.val30 to i64
  %17 = and i64 %16, -2
  %18 = inttoptr i64 %17 to ptr
  tail call void @Saig_ManCbaUnrollCollect_rec(ptr noundef nonnull %0, ptr noundef %18, ptr noundef %2, ptr noundef %3)
  br label %.sink.split

.sink.split:                                      ; preds = %7, %14
  %.sink53 = phi i64 [ 16, %14 ], [ 8, %7 ]
  %19 = getelementptr i8, ptr %1, i64 %.sink53
  %.val32 = load ptr, ptr %19, align 8, !tbaa !78
  %20 = ptrtoint ptr %.val32 to i64
  %21 = and i64 %20, -2
  %22 = inttoptr i64 %21 to ptr
  tail call void @Saig_ManCbaUnrollCollect_rec(ptr noundef nonnull %0, ptr noundef %22, ptr noundef %2, ptr noundef %3)
  br label %23

23:                                               ; preds = %.sink.split, %10
  %.not28 = icmp eq ptr %3, null
  br i1 %.not28, label %Saig_ObjIsLo.exit.thread, label %24

24:                                               ; preds = %23
  %.val3.i = load i64, ptr %8, align 8
  %25 = and i64 %.val3.i, 7
  %.not.i = icmp eq i64 %25, 2
  br i1 %.not.i, label %Saig_ObjIsLo.exit, label %Saig_ObjIsLo.exit.thread

Saig_ObjIsLo.exit:                                ; preds = %24
  %.val4.i = load i32, ptr %1, align 8, !tbaa !58
  %26 = getelementptr i8, ptr %0, i64 108
  %.val.i = load i32, ptr %26, align 4, !tbaa !32
  %.not51 = icmp slt i32 %.val4.i, %.val.i
  br i1 %.not51, label %Saig_ObjIsLo.exit.thread, label %27

27:                                               ; preds = %Saig_ObjIsLo.exit
  %28 = getelementptr inbounds nuw i8, ptr %0, i64 24
  %29 = load ptr, ptr %28, align 8, !tbaa !43
  %30 = getelementptr i8, ptr %0, i64 112
  %.val5.i = load i32, ptr %30, align 8, !tbaa !48
  %31 = add nsw i32 %.val5.i, %.val4.i
  %32 = sub i32 %31, %.val.i
  %33 = getelementptr i8, ptr %29, i64 8
  %.val4.i41 = load ptr, ptr %33, align 8, !tbaa !33
  %34 = sext i32 %32 to i64
  %35 = getelementptr inbounds ptr, ptr %.val4.i41, i64 %34
  %36 = load ptr, ptr %35, align 8, !tbaa !35
  %37 = getelementptr i8, ptr %36, i64 36
  %.val37 = load i32, ptr %37, align 4, !tbaa !74
  %38 = getelementptr inbounds nuw i8, ptr %3, i64 4
  %39 = load i32, ptr %38, align 4, !tbaa !3
  %40 = load i32, ptr %3, align 8, !tbaa !10
  %41 = icmp eq i32 %39, %40
  br i1 %41, label %42, label %.Vec_IntGrow.exit10_crit_edge.i

.Vec_IntGrow.exit10_crit_edge.i:                  ; preds = %27
  %.phi.trans.insert.i = getelementptr inbounds nuw i8, ptr %3, i64 8
  %.pre.i = load ptr, ptr %.phi.trans.insert.i, align 8, !tbaa !11
  br label %Vec_IntPush.exit

42:                                               ; preds = %27
  %43 = icmp slt i32 %39, 16
  br i1 %43, label %44, label %52

44:                                               ; preds = %42
  %45 = getelementptr inbounds nuw i8, ptr %3, i64 8
  %46 = load ptr, ptr %45, align 8, !tbaa !11
  %.not9.i.i = icmp eq ptr %46, null
  br i1 %.not9.i.i, label %49, label %47

47:                                               ; preds = %44
  %48 = tail call dereferenceable_or_null(64) ptr @realloc(ptr noundef nonnull %46, i64 noundef 64) #19
  br label %Vec_IntGrow.exit.i

49:                                               ; preds = %44
  %50 = tail call noalias dereferenceable_or_null(64) ptr @malloc(i64 noundef 64) #18
  br label %Vec_IntGrow.exit.i

Vec_IntGrow.exit.i:                               ; preds = %49, %47
  %51 = phi ptr [ %48, %47 ], [ %50, %49 ]
  store ptr %51, ptr %45, align 8, !tbaa !11
  store i32 16, ptr %3, align 8, !tbaa !10
  br label %Vec_IntPush.exit

52:                                               ; preds = %42
  %53 = shl nuw nsw i32 %39, 1
  %54 = getelementptr inbounds nuw i8, ptr %3, i64 8
  %55 = load ptr, ptr %54, align 8, !tbaa !11
  %.not9.i9.i = icmp eq ptr %55, null
  %56 = zext nneg i32 %53 to i64
  %57 = shl nuw nsw i64 %56, 2
  br i1 %.not9.i9.i, label %60, label %58

58:                                               ; preds = %52
  %59 = tail call ptr @realloc(ptr noundef nonnull %55, i64 noundef %57) #19
  br label %62

60:                                               ; preds = %52
  %61 = tail call noalias ptr @malloc(i64 noundef %57) #18
  br label %62

62:                                               ; preds = %60, %58
  %63 = phi ptr [ %59, %58 ], [ %61, %60 ]
  store ptr %63, ptr %54, align 8, !tbaa !11
  store i32 %53, ptr %3, align 8, !tbaa !10
  br label %Vec_IntPush.exit

Vec_IntPush.exit:                                 ; preds = %.Vec_IntGrow.exit10_crit_edge.i, %Vec_IntGrow.exit.i, %62
  %64 = phi ptr [ %.pre.i, %.Vec_IntGrow.exit10_crit_edge.i ], [ %63, %62 ], [ %51, %Vec_IntGrow.exit.i ]
  %65 = load i32, ptr %38, align 4, !tbaa !3
  %66 = add nsw i32 %65, 1
  store i32 %66, ptr %38, align 4, !tbaa !3
  %67 = sext i32 %65 to i64
  %68 = getelementptr inbounds i32, ptr %64, i64 %67
  store i32 %.val37, ptr %68, align 4, !tbaa !12
  br label %Saig_ObjIsLo.exit.thread

Saig_ObjIsLo.exit.thread:                         ; preds = %24, %Vec_IntPush.exit, %Saig_ObjIsLo.exit, %23
  %69 = getelementptr i8, ptr %1, i64 36
  %.val36 = load i32, ptr %69, align 4, !tbaa !74
  %70 = getelementptr inbounds nuw i8, ptr %2, i64 4
  %71 = load i32, ptr %70, align 4, !tbaa !3
  %72 = load i32, ptr %2, align 8, !tbaa !10
  %73 = icmp eq i32 %71, %72
  br i1 %73, label %74, label %.Vec_IntGrow.exit10_crit_edge.i42

.Vec_IntGrow.exit10_crit_edge.i42:                ; preds = %Saig_ObjIsLo.exit.thread
  %.phi.trans.insert.i43 = getelementptr inbounds nuw i8, ptr %2, i64 8
  %.pre.i44 = load ptr, ptr %.phi.trans.insert.i43, align 8, !tbaa !11
  br label %Vec_IntPush.exit48

74:                                               ; preds = %Saig_ObjIsLo.exit.thread
  %75 = icmp slt i32 %71, 16
  br i1 %75, label %76, label %84

76:                                               ; preds = %74
  %77 = getelementptr inbounds nuw i8, ptr %2, i64 8
  %78 = load ptr, ptr %77, align 8, !tbaa !11
  %.not9.i.i46 = icmp eq ptr %78, null
  br i1 %.not9.i.i46, label %81, label %79

79:                                               ; preds = %76
  %80 = tail call dereferenceable_or_null(64) ptr @realloc(ptr noundef nonnull %78, i64 noundef 64) #19
  br label %Vec_IntGrow.exit.i47

81:                                               ; preds = %76
  %82 = tail call noalias dereferenceable_or_null(64) ptr @malloc(i64 noundef 64) #18
  br label %Vec_IntGrow.exit.i47

Vec_IntGrow.exit.i47:                             ; preds = %81, %79
  %83 = phi ptr [ %80, %79 ], [ %82, %81 ]
  store ptr %83, ptr %77, align 8, !tbaa !11
  store i32 16, ptr %2, align 8, !tbaa !10
  br label %Vec_IntPush.exit48

84:                                               ; preds = %74
  %85 = shl nuw nsw i32 %71, 1
  %86 = getelementptr inbounds nuw i8, ptr %2, i64 8
  %87 = load ptr, ptr %86, align 8, !tbaa !11
  %.not9.i9.i45 = icmp eq ptr %87, null
  %88 = zext nneg i32 %85 to i64
  %89 = shl nuw nsw i64 %88, 2
  br i1 %.not9.i9.i45, label %92, label %90

90:                                               ; preds = %84
  %91 = tail call ptr @realloc(ptr noundef nonnull %87, i64 noundef %89) #19
  br label %94

92:                                               ; preds = %84
  %93 = tail call noalias ptr @malloc(i64 noundef %89) #18
  br label %94

94:                                               ; preds = %92, %90
  %95 = phi ptr [ %91, %90 ], [ %93, %92 ]
  store ptr %95, ptr %86, align 8, !tbaa !11
  store i32 %85, ptr %2, align 8, !tbaa !10
  br label %Vec_IntPush.exit48

Vec_IntPush.exit48:                               ; preds = %.Vec_IntGrow.exit10_crit_edge.i42, %Vec_IntGrow.exit.i47, %94
  %96 = phi ptr [ %.pre.i44, %.Vec_IntGrow.exit10_crit_edge.i42 ], [ %95, %94 ], [ %83, %Vec_IntGrow.exit.i47 ]
  %97 = load i32, ptr %70, align 4, !tbaa !3
  %98 = add nsw i32 %97, 1
  store i32 %98, ptr %70, align 4, !tbaa !3
  %99 = sext i32 %97 to i64
  %100 = getelementptr inbounds i32, ptr %96, i64 %99
  store i32 %.val36, ptr %100, align 4, !tbaa !12
  br label %101

101:                                              ; preds = %4, %Vec_IntPush.exit48
  ret void
}